; Function Attrs: nounwind uwtable
define internal noundef i32 @get_word_gray_rgb_row(ptr noundef %0, ptr noundef readonly captures(none) %1) #0 {
  %3 = getelementptr inbounds nuw i8, ptr %1, i64 88
  %4 = load ptr, ptr %3, align 8, !tbaa !59
  %5 = getelementptr inbounds nuw i8, ptr %1, i64 96
  %6 = load i32, ptr %5, align 8, !tbaa !47
  %7 = getelementptr inbounds nuw i8, ptr %0, i64 60
  %8 = load i32, ptr %7, align 4, !tbaa !48
  %.fr49 = freeze i32 %8
  %9 = zext i32 %.fr49 to i64
  %10 = getelementptr inbounds nuw [17 x i32], ptr @rgb_red, i64 0, i64 %9
  %11 = load i32, ptr %10, align 4, !tbaa !49
  %12 = getelementptr inbounds nuw [17 x i32], ptr @rgb_green, i64 0, i64 %9
  %13 = load i32, ptr %12, align 4, !tbaa !49
  %14 = getelementptr inbounds nuw [17 x i32], ptr @rgb_blue, i64 0, i64 %9
  %15 = load i32, ptr %14, align 4, !tbaa !49
  %16 = getelementptr inbounds nuw [17 x i32], ptr @alpha_index, i64 0, i64 %9
  %17 = load i32, ptr %16, align 4, !tbaa !49
  %18 = getelementptr inbounds nuw [17 x i32], ptr @rgb_pixelsize, i64 0, i64 %9
  %19 = load i32, ptr %18, align 4, !tbaa !49
  %20 = getelementptr inbounds nuw i8, ptr %1, i64 64
  %21 = load ptr, ptr %20, align 8, !tbaa !54
  %22 = getelementptr inbounds nuw i8, ptr %1, i64 80
  %23 = load i64, ptr %22, align 8, !tbaa !53
  %24 = getelementptr inbounds nuw i8, ptr %1, i64 24
  %25 = load ptr, ptr %24, align 8, !tbaa !43
  %26 = tail call i64 @fread(ptr noundef %21, i64 noundef 1, i64 noundef %23, ptr noundef %25)
  %27 = load i64, ptr %22, align 8, !tbaa !53
  %28 = icmp eq i64 %26, %27
  br i1 %28, label %33, label %29

29:                                               ; preds = %2
  %30 = load ptr, ptr %0, align 8, !tbaa !25
  %31 = getelementptr inbounds nuw i8, ptr %30, i64 40
  store i32 43, ptr %31, align 8, !tbaa !26
  %32 = load ptr, ptr %30, align 8, !tbaa !31
  tail call void %32(ptr noundef nonnull %0) #6
  br label %33

33:                                               ; preds = %29, %2
  %34 = getelementptr inbounds nuw i8, ptr %0, i64 48
  %35 = load i32, ptr %34, align 8, !tbaa !45
  %.not44 = icmp eq i32 %35, 0
  br i1 %.not44, label %._crit_edge, label %.lr.ph

.lr.ph:                                           ; preds = %33
  %36 = load ptr, ptr %20, align 8, !tbaa !54
  %37 = getelementptr inbounds nuw i8, ptr %1, i64 32
  %38 = load ptr, ptr %37, align 8, !tbaa !57
  %39 = load ptr, ptr %38, align 8, !tbaa !63
  %40 = sext i32 %15 to i64
  %41 = sext i32 %13 to i64
  %42 = sext i32 %11 to i64
  %43 = and i64 %9, 4294967292
  %44 = icmp eq i64 %43, 12
  %45 = getelementptr inbounds nuw i8, ptr %0, i64 72
  %46 = zext nneg i32 %17 to i64
  %47 = sext i32 %19 to i64
  br i1 %44, label %.lr.ph.split.us, label %.lr.ph.split

.lr.ph.split.us:                                  ; preds = %.lr.ph, %61
  %.047.us = phi ptr [ %72, %61 ], [ %39, %.lr.ph ]
  %.04146.us = phi ptr [ %52, %61 ], [ %36, %.lr.ph ]
  %.04245.us = phi i32 [ %73, %61 ], [ %35, %.lr.ph ]
  %48 = getelementptr inbounds nuw i8, ptr %.04146.us, i64 1
  %49 = load i8, ptr %.04146.us, align 1, !tbaa !30
  %50 = zext i8 %49 to i32
  %51 = shl nuw nsw i32 %50, 8
  %52 = getelementptr inbounds nuw i8, ptr %.04146.us, i64 2
  %53 = load i8, ptr %48, align 1, !tbaa !30
  %54 = zext i8 %53 to i32
  %55 = or disjoint i32 %51, %54
  %56 = icmp ugt i32 %55, %6
  br i1 %56, label %57, label %61

57:                                               ; preds = %.lr.ph.split.us
  %58 = load ptr, ptr %0, align 8, !tbaa !25
  %59 = getelementptr inbounds nuw i8, ptr %58, i64 40
  store i32 1031, ptr %59, align 8, !tbaa !26
  %60 = load ptr, ptr %58, align 8, !tbaa !31
  tail call void %60(ptr noundef nonnull %0) #6
  br label %61

61:                                               ; preds = %57, %.lr.ph.split.us
  %62 = zext nneg i32 %55 to i64
  %63 = getelementptr inbounds nuw i8, ptr %4, i64 %62
  %64 = load i8, ptr %63, align 1, !tbaa !30
  %65 = getelementptr inbounds i8, ptr %.047.us, i64 %40
  store i8 %64, ptr %65, align 1, !tbaa !30
  %66 = getelementptr inbounds i8, ptr %.047.us, i64 %41
  store i8 %64, ptr %66, align 1, !tbaa !30
  %67 = getelementptr inbounds i8, ptr %.047.us, i64 %42
  store i8 %64, ptr %67, align 1, !tbaa !30
  %68 = load i32, ptr %45, align 8, !tbaa !4
  %notmask.us = shl nsw i32 -1, %68
  %69 = trunc i32 %notmask.us to i8
  %70 = xor i8 %69, -1
  %71 = getelementptr inbounds nuw i8, ptr %.047.us, i64 %46
  store i8 %70, ptr %71, align 1, !tbaa !30
  %72 = getelementptr inbounds i8, ptr %.047.us, i64 %47
  %73 = add i32 %.04245.us, -1
  %.not.us = icmp eq i32 %73, 0
  br i1 %.not.us, label %._crit_edge, label %.lr.ph.split.us, !llvm.loop !78

.lr.ph.split:                                     ; preds = %.lr.ph, %87
  %.047 = phi ptr [ %94, %87 ], [ %39, %.lr.ph ]
  %.04146 = phi ptr [ %78, %87 ], [ %36, %.lr.ph ]
  %.04245 = phi i32 [ %95, %87 ], [ %35, %.lr.ph ]
  %74 = getelementptr inbounds nuw i8, ptr %.04146, i64 1
  %75 = load i8, ptr %.04146, align 1, !tbaa !30
  %76 = zext i8 %75 to i32
  %77 = shl nuw nsw i32 %76, 8
  %78 = getelementptr inbounds nuw i8, ptr %.04146, i64 2
  %79 = load i8, ptr %74, align 1, !tbaa !30
  %80 = zext i8 %79 to i32
  %81 = or disjoint i32 %77, %80
  %82 = icmp ugt i32 %81, %6
  br i1 %82, label %83, label %87

83:                                               ; preds = %.lr.ph.split
  %84 = load ptr, ptr %0, align 8, !tbaa !25
  %85 = getelementptr inbounds nuw i8, ptr %84, i64 40
  store i32 1031, ptr %85, align 8, !tbaa !26
  %86 = load ptr, ptr %84, align 8, !tbaa !31
  tail call void %86(ptr noundef nonnull %0) #6
  br label %87

87:                                               ; preds = %83, %.lr.ph.split
  %88 = zext nneg i32 %81 to i64
  %89 = getelementptr inbounds nuw i8, ptr %4, i64 %88
  %90 = load i8, ptr %89, align 1, !tbaa !30
  %91 = getelementptr inbounds i8, ptr %.047, i64 %40
  store i8 %90, ptr %91, align 1, !tbaa !30
  %92 = getelementptr inbounds i8, ptr %.047, i64 %41
  store i8 %90, ptr %92, align 1, !tbaa !30
  %93 = getelementptr inbounds i8, ptr %.047, i64 %42
  store i8 %90, ptr %93, align 1, !tbaa !30
  %94 = getelementptr inbounds i8, ptr %.047, i64 %47
  %95 = add i32 %.04245, -1
  %.not = icmp eq i32 %95, 0
  br i1 %.not, label %._crit_edge, label %.lr.ph.split, !llvm.loop !78

._crit_edge:                                      ; preds = %87, %61, %33
  ret i32 1
}